target datalayout = "e-m:e-p270:32:32-p271:32:32-p272:64:64-i64:64-i128:128-f80:128-n8:16:32:64-S128"
target triple = "x86_64-pc-linux-gnu"

%struct.__storeu_si128 = type { <2 x i64> }
%struct.__loadu_si128 = type { <2 x i64> }

@VP8LPredictorsAdd_C = external global [16 x ptr], align 16

; Function Attrs: alwaysinline nounwind uwtable
define internal <2 x i64> @_mm_set_epi8(i8 noundef signext %0, i8 noundef signext %1, i8 noundef signext %2, i8 noundef signext %3, i8 noundef signext %4, i8 noundef signext %5, i8 noundef signext %6, i8 noundef signext %7, i8 noundef signext %8, i8 noundef signext %9, i8 noundef signext %10, i8 noundef signext %11, i8 noundef signext %12, i8 noundef signext %13, i8 noundef signext %14, i8 noundef signext %15) #4 {
  %17 = alloca i8, align 1
  %18 = alloca i8, align 1
  %19 = alloca i8, align 1
  %20 = alloca i8, align 1
  %21 = alloca i8, align 1
  %22 = alloca i8, align 1
  %23 = alloca i8, align 1
  %24 = alloca i8, align 1
  %25 = alloca i8, align 1
  %26 = alloca i8, align 1
  %27 = alloca i8, align 1
  %28 = alloca i8, align 1
  %29 = alloca i8, align 1
  %30 = alloca i8, align 1
  %31 = alloca i8, align 1
  %32 = alloca i8, align 1
  %33 = alloca <16 x i8>, align 16
  store i8 %0, ptr %17, align 1, !tbaa !11
  store i8 %1, ptr %18, align 1, !tbaa !11
  store i8 %2, ptr %19, align 1, !tbaa !11
  store i8 %3, ptr %20, align 1, !tbaa !11
  store i8 %4, ptr %21, align 1, !tbaa !11
  store i8 %5, ptr %22, align 1, !tbaa !11
  store i8 %6, ptr %23, align 1, !tbaa !11
  store i8 %7, ptr %24, align 1, !tbaa !11
  store i8 %8, ptr %25, align 1, !tbaa !11
  store i8 %9, ptr %26, align 1, !tbaa !11
  store i8 %10, ptr %27, align 1, !tbaa !11
  store i8 %11, ptr %28, align 1, !tbaa !11
  store i8 %12, ptr %29, align 1, !tbaa !11
  store i8 %13, ptr %30, align 1, !tbaa !11
  store i8 %14, ptr %31, align 1, !tbaa !11
  store i8 %15, ptr %32, align 1, !tbaa !11
  %34 = load i8, ptr %32, align 1, !tbaa !11
  %35 = insertelement <16 x i8> poison, i8 %34, i32 0
  %36 = load i8, ptr %31, align 1, !tbaa !11
  %37 = insertelement <16 x i8> %35, i8 %36, i32 1
  %38 = load i8, ptr %30, align 1, !tbaa !11
  %39 = insertelement <16 x i8> %37, i8 %38, i32 2
  %40 = load i8, ptr %29, align 1, !tbaa !11
  %41 = insertelement <16 x i8> %39, i8 %40, i32 3
  %42 = load i8, ptr %28, align 1, !tbaa !11
  %43 = insertelement <16 x i8> %41, i8 %42, i32 4
  %44 = load i8, ptr %27, align 1, !tbaa !11
  %45 = insertelement <16 x i8> %43, i8 %44, i32 5
  %46 = load i8, ptr %26, align 1, !tbaa !11
  %47 = insertelement <16 x i8> %45, i8 %46, i32 6
  %48 = load i8, ptr %25, align 1, !tbaa !11
  %49 = insertelement <16 x i8> %47, i8 %48, i32 7
  %50 = load i8, ptr %24, align 1, !tbaa !11
  %51 = insertelement <16 x i8> %49, i8 %50, i32 8
  %52 = load i8, ptr %23, align 1, !tbaa !11
  %53 = insertelement <16 x i8> %51, i8 %52, i32 9
  %54 = load i8, ptr %22, align 1, !tbaa !11
  %55 = insertelement <16 x i8> %53, i8 %54, i32 10
  %56 = load i8, ptr %21, align 1, !tbaa !11
  %57 = insertelement <16 x i8> %55, i8 %56, i32 11
  %58 = load i8, ptr %20, align 1, !tbaa !11
  %59 = insertelement <16 x i8> %57, i8 %58, i32 12
  %60 = load i8, ptr %19, align 1, !tbaa !11
  %61 = insertelement <16 x i8> %59, i8 %60, i32 13
  %62 = load i8, ptr %18, align 1, !tbaa !11
  %63 = insertelement <16 x i8> %61, i8 %62, i32 14
  %64 = load i8, ptr %17, align 1, !tbaa !11
  %65 = insertelement <16 x i8> %63, i8 %64, i32 15
  store <16 x i8> %65, ptr %33, align 16, !tbaa !11
  %66 = load <16 x i8>, ptr %33, align 16, !tbaa !11
  %67 = bitcast <16 x i8> %66 to <2 x i64>
  ret <2 x i64> %67
}

; Function Attrs: alwaysinline nounwind uwtable
define internal <2 x i64> @_mm_sub_epi8(<2 x i64> noundef %0, <2 x i64> noundef %1) #4 {
  %3 = alloca <2 x i64>, align 16
  %4 = alloca <2 x i64>, align 16
  store <2 x i64> %0, ptr %3, align 16, !tbaa !11
  store <2 x i64> %1, ptr %4, align 16, !tbaa !11
  %5 = load <2 x i64>, ptr %3, align 16, !tbaa !11
  %6 = bitcast <2 x i64> %5 to <16 x i8>
  %7 = load <2 x i64>, ptr %4, align 16, !tbaa !11
  %8 = bitcast <2 x i64> %7 to <16 x i8>
  %9 = sub <16 x i8> %6, %8
  %10 = bitcast <16 x i8> %9 to <2 x i64>
  ret <2 x i64> %10
}

; Function Attrs: alwaysinline nounwind uwtable
define internal <2 x i64> @_mm_and_si128(<2 x i64> noundef %0, <2 x i64> noundef %1) #4 {
  %3 = alloca <2 x i64>, align 16
  %4 = alloca <2 x i64>, align 16
  store <2 x i64> %0, ptr %3, align 16, !tbaa !11
  store <2 x i64> %1, ptr %4, align 16, !tbaa !11
  %5 = load <2 x i64>, ptr %3, align 16, !tbaa !11
  %6 = load <2 x i64>, ptr %4, align 16, !tbaa !11
  %7 = and <2 x i64> %5, %6
  ret <2 x i64> %7
}

; Function Attrs: alwaysinline nounwind uwtable
define internal <2 x i64> @_mm_xor_si128(<2 x i64> noundef %0, <2 x i64> noundef %1) #4 {
  %3 = alloca <2 x i64>, align 16
  %4 = alloca <2 x i64>, align 16
  store <2 x i64> %0, ptr %3, align 16, !tbaa !11
  store <2 x i64> %1, ptr %4, align 16, !tbaa !11
  %5 = load <2 x i64>, ptr %3, align 16, !tbaa !11
  %6 = load <2 x i64>, ptr %4, align 16, !tbaa !11
  %7 = xor <2 x i64> %5, %6
  ret <2 x i64> %7
}

; Function Attrs: alwaysinline nounwind uwtable
define internal <2 x i64> @_mm_avg_epu8(<2 x i64> noundef %0, <2 x i64> noundef %1) #4 {
  %3 = alloca <2 x i64>, align 16
  %4 = alloca <2 x i64>, align 16
  store <2 x i64> %0, ptr %3, align 16, !tbaa !11
  store <2 x i64> %1, ptr %4, align 16, !tbaa !11
  %5 = load <2 x i64>, ptr %3, align 16, !tbaa !11
  %6 = bitcast <2 x i64> %5 to <16 x i8>
  %7 = load <2 x i64>, ptr %4, align 16, !tbaa !11
  %8 = bitcast <2 x i64> %7 to <16 x i8>
  %9 = call <16 x i8> @llvm.x86.sse2.pavg.b(<16 x i8> %6, <16 x i8> %8)
  %10 = bitcast <16 x i8> %9 to <2 x i64>
  ret <2 x i64> %10
}

; Function Attrs: alwaysinline nounwind uwtable
define internal <2 x i64> @_mm_set1_epi8(i8 noundef signext %0) #4 {
  %2 = alloca i8, align 1
  store i8 %0, ptr %2, align 1, !tbaa !11
  %3 = load i8, ptr %2, align 1, !tbaa !11
  %4 = load i8, ptr %2, align 1, !tbaa !11
  %5 = load i8, ptr %2, align 1, !tbaa !11
  %6 = load i8, ptr %2, align 1, !tbaa !11
  %7 = load i8, ptr %2, align 1, !tbaa !11
  %8 = load i8, ptr %2, align 1, !tbaa !11
  %9 = load i8, ptr %2, align 1, !tbaa !11
  %10 = load i8, ptr %2, align 1, !tbaa !11
  %11 = load i8, ptr %2, align 1, !tbaa !11
  %12 = load i8, ptr %2, align 1, !tbaa !11
  %13 = load i8, ptr %2, align 1, !tbaa !11
  %14 = load i8, ptr %2, align 1, !tbaa !11
  %15 = load i8, ptr %2, align 1, !tbaa !11
  %16 = load i8, ptr %2, align 1, !tbaa !11
  %17 = load i8, ptr %2, align 1, !tbaa !11
  %18 = load i8, ptr %2, align 1, !tbaa !11
  %19 = call <2 x i64> @_mm_set_epi8(i8 noundef signext %3, i8 noundef signext %4, i8 noundef signext %5, i8 noundef signext %6, i8 noundef signext %7, i8 noundef signext %8, i8 noundef signext %9, i8 noundef signext %10, i8 noundef signext %11, i8 noundef signext %12, i8 noundef signext %13, i8 noundef signext %14, i8 noundef signext %15, i8 noundef signext %16, i8 noundef signext %17, i8 noundef signext %18)
  ret <2 x i64> %19
}

; Function Attrs: alwaysinline nounwind uwtable
define internal void @_mm_storeu_si128(ptr noundef %0, <2 x i64> noundef %1) #4 {
  %3 = alloca ptr, align 8
  %4 = alloca <2 x i64>, align 16
  store ptr %0, ptr %3, align 8, !tbaa !3
  store <2 x i64> %1, ptr %4, align 16, !tbaa !11
  %5 = load <2 x i64>, ptr %4, align 16, !tbaa !11
  %6 = load ptr, ptr %3, align 8, !tbaa !3
  %7 = getelementptr inbounds nuw %struct.__storeu_si128, ptr %6, i32 0, i32 0
  store <2 x i64> %5, ptr %7, align 1, !tbaa !11
  ret void
}

; Function Attrs: alwaysinline nounwind uwtable
define internal <2 x i64> @_mm_add_epi8(<2 x i64> noundef %0, <2 x i64> noundef %1) #4 {
  %3 = alloca <2 x i64>, align 16
  %4 = alloca <2 x i64>, align 16
  store <2 x i64> %0, ptr %3, align 16, !tbaa !11
  store <2 x i64> %1, ptr %4, align 16, !tbaa !11
  %5 = load <2 x i64>, ptr %3, align 16, !tbaa !11
  %6 = bitcast <2 x i64> %5 to <16 x i8>
  %7 = load <2 x i64>, ptr %4, align 16, !tbaa !11
  %8 = bitcast <2 x i64> %7 to <16 x i8>
  %9 = add <16 x i8> %6, %8
  %10 = bitcast <16 x i8> %9 to <2 x i64>
  ret <2 x i64> %10
}

; Function Attrs: inlinehint nounwind uwtable
define internal void @Average2_m128i(ptr noundef %0, ptr noundef %1, ptr noundef %2) #3 {
  %4 = alloca ptr, align 8
  %5 = alloca ptr, align 8
  %6 = alloca ptr, align 8
  %7 = alloca <2 x i64>, align 16
  %8 = alloca <2 x i64>, align 16
  %9 = alloca <2 x i64>, align 16
  store ptr %0, ptr %4, align 8, !tbaa !3
  store ptr %1, ptr %5, align 8, !tbaa !3
  store ptr %2, ptr %6, align 8, !tbaa !3
  call void @llvm.lifetime.start.p0(i64 16, ptr %7) #9
  %10 = call <2 x i64> @_mm_set1_epi8(i8 noundef signext 1)
  store <2 x i64> %10, ptr %7, align 16, !tbaa !11
  call void @llvm.lifetime.start.p0(i64 16, ptr %8) #9
  %11 = load ptr, ptr %4, align 8, !tbaa !3
  %12 = load <2 x i64>, ptr %11, align 16, !tbaa !11
  %13 = load ptr, ptr %5, align 8, !tbaa !3
  %14 = load <2 x i64>, ptr %13, align 16, !tbaa !11
  %15 = call <2 x i64> @_mm_avg_epu8(<2 x i64> noundef %12, <2 x i64> noundef %14)
  store <2 x i64> %15, ptr %8, align 16, !tbaa !11
  call void @llvm.lifetime.start.p0(i64 16, ptr %9) #9
  %16 = load ptr, ptr %4, align 8, !tbaa !3
  %17 = load <2 x i64>, ptr %16, align 16, !tbaa !11
  %18 = load ptr, ptr %5, align 8, !tbaa !3
  %19 = load <2 x i64>, ptr %18, align 16, !tbaa !11
  %20 = call <2 x i64> @_mm_xor_si128(<2 x i64> noundef %17, <2 x i64> noundef %19)
  %21 = load <2 x i64>, ptr %7, align 16, !tbaa !11
  %22 = call <2 x i64> @_mm_and_si128(<2 x i64> noundef %20, <2 x i64> noundef %21)
  store <2 x i64> %22, ptr %9, align 16, !tbaa !11
  %23 = load <2 x i64>, ptr %8, align 16, !tbaa !11
  %24 = load <2 x i64>, ptr %9, align 16, !tbaa !11
  %25 = call <2 x i64> @_mm_sub_epi8(<2 x i64> noundef %23, <2 x i64> noundef %24)
  %26 = load ptr, ptr %6, align 8, !tbaa !3
  store <2 x i64> %25, ptr %26, align 16, !tbaa !11
  call void @llvm.lifetime.end.p0(i64 16, ptr %9) #9
  call void @llvm.lifetime.end.p0(i64 16, ptr %8) #9
  call void @llvm.lifetime.end.p0(i64 16, ptr %7) #9
  ret void
}

; Function Attrs: alwaysinline nounwind uwtable
define internal <2 x i64> @_mm_loadu_si128(ptr noundef %0) #4 {
  %2 = alloca ptr, align 8
  store ptr %0, ptr %2, align 8, !tbaa !3
  %3 = load ptr, ptr %2, align 8, !tbaa !3
  %4 = getelementptr inbounds nuw %struct.__loadu_si128, ptr %3, i32 0, i32 0
  %5 = load <2 x i64>, ptr %4, align 1, !tbaa !11
  ret <2 x i64> %5
}

; Function Attrs: nounwind uwtable
define internal void @PredictorAdd9_SSE2(ptr noundef %0, ptr noundef %1, i32 noundef %2, ptr noalias noundef %3) #1 {
  %5 = alloca ptr, align 8
  %6 = alloca ptr, align 8
  %7 = alloca i32, align 4
  %8 = alloca ptr, align 8
  %9 = alloca i32, align 4
  %10 = alloca <2 x i64>, align 16
  %11 = alloca <2 x i64>, align 16
  %12 = alloca <2 x i64>, align 16
  %13 = alloca <2 x i64>, align 16
  %14 = alloca <2 x i64>, align 16
  store ptr %0, ptr %5, align 8, !tbaa !7
  store ptr %1, ptr %6, align 8, !tbaa !7
  store i32 %2, ptr %7, align 4, !tbaa !9
  store ptr %3, ptr %8, align 8, !tbaa !7
  call void @llvm.lifetime.start.p0(i64 4, ptr %9) #9
  store i32 0, ptr %9, align 4, !tbaa !9
  br label %15

15:                                               ; preds = %45, %4
  %16 = load i32, ptr %9, align 4, !tbaa !9
  %17 = add nsw i32 %16, 4
  %18 = load i32, ptr %7, align 4, !tbaa !9
  %19 = icmp sle i32 %17, %18
  br i1 %19, label %20, label %48

20:                                               ; preds = %15
  call void @llvm.lifetime.start.p0(i64 16, ptr %10) #9
  %21 = load ptr, ptr %6, align 8, !tbaa !7
  %22 = load i32, ptr %9, align 4, !tbaa !9
  %23 = add nsw i32 %22, 1
  %24 = sext i32 %23 to i64
  %25 = getelementptr inbounds i32, ptr %21, i64 %24
  %26 = call <2 x i64> @_mm_loadu_si128(ptr noundef %25)
  store <2 x i64> %26, ptr %10, align 16, !tbaa !11
  call void @llvm.lifetime.start.p0(i64 16, ptr %11) #9
  %27 = load ptr, ptr %6, align 8, !tbaa !7
  %28 = load i32, ptr %9, align 4, !tbaa !9
  %29 = sext i32 %28 to i64
  %30 = getelementptr inbounds i32, ptr %27, i64 %29
  %31 = call <2 x i64> @_mm_loadu_si128(ptr noundef %30)
  store <2 x i64> %31, ptr %11, align 16, !tbaa !11
  call void @llvm.lifetime.start.p0(i64 16, ptr %12) #9
  %32 = load ptr, ptr %5, align 8, !tbaa !7
  %33 = load i32, ptr %9, align 4, !tbaa !9
  %34 = sext i32 %33 to i64
  %35 = getelementptr inbounds i32, ptr %32, i64 %34
  %36 = call <2 x i64> @_mm_loadu_si128(ptr noundef %35)
  store <2 x i64> %36, ptr %12, align 16, !tbaa !11
  call void @llvm.lifetime.start.p0(i64 16, ptr %13) #9
  call void @llvm.lifetime.start.p0(i64 16, ptr %14) #9
  call void @Average2_m128i(ptr noundef %11, ptr noundef %10, ptr noundef %13)
  %37 = load <2 x i64>, ptr %13, align 16, !tbaa !11
  %38 = load <2 x i64>, ptr %12, align 16, !tbaa !11
  %39 = call <2 x i64> @_mm_add_epi8(<2 x i64> noundef %37, <2 x i64> noundef %38)
  store <2 x i64> %39, ptr %14, align 16, !tbaa !11
  %40 = load ptr, ptr %8, align 8, !tbaa !7
  %41 = load i32, ptr %9, align 4, !tbaa !9
  %42 = sext i32 %41 to i64
  %43 = getelementptr inbounds i32, ptr %40, i64 %42
  %44 = load <2 x i64>, ptr %14, align 16, !tbaa !11
  call void @_mm_storeu_si128(ptr noundef %43, <2 x i64> noundef %44)
  call void @llvm.lifetime.end.p0(i64 16, ptr %14) #9
  call void @llvm.lifetime.end.p0(i64 16, ptr %13) #9
  call void @llvm.lifetime.end.p0(i64 16, ptr %12) #9
  call void @llvm.lifetime.end.p0(i64 16, ptr %11) #9
  call void @llvm.lifetime.end.p0(i64 16, ptr %10) #9
  br label %45

45:                                               ; preds = %20
  %46 = load i32, ptr %9, align 4, !tbaa !9
  %47 = add nsw i32 %46, 4
  store i32 %47, ptr %9, align 4, !tbaa !9
  br label %15, !llvm.loop !22

48:                                               ; preds = %15
  %49 = load i32, ptr %9, align 4, !tbaa !9
  %50 = load i32, ptr %7, align 4, !tbaa !9
  %51 = icmp ne i32 %49, %50
  br i1 %51, label %52, label %69

52:                                               ; preds = %48
  %53 = load ptr, ptr getelementptr inbounds ([16 x ptr], ptr @VP8LPredictorsAdd_C, i64 0, i64 9), align 8, !tbaa !3
  %54 = load ptr, ptr %5, align 8, !tbaa !7
  %55 = load i32, ptr %9, align 4, !tbaa !9
  %56 = sext i32 %55 to i64
  %57 = getelementptr inbounds i32, ptr %54, i64 %56
  %58 = load ptr, ptr %6, align 8, !tbaa !7
  %59 = load i32, ptr %9, align 4, !tbaa !9
  %60 = sext i32 %59 to i64
  %61 = getelementptr inbounds i32, ptr %58, i64 %60
  %62 = load i32, ptr %7, align 4, !tbaa !9
  %63 = load i32, ptr %9, align 4, !tbaa !9
  %64 = sub nsw i32 %62, %63
  %65 = load ptr, ptr %8, align 8, !tbaa !7
  %66 = load i32, ptr %9, align 4, !tbaa !9
  %67 = sext i32 %66 to i64
  %68 = getelementptr inbounds i32, ptr %65, i64 %67
  call void %53(ptr noundef %57, ptr noundef %61, i32 noundef %64, ptr noundef %68)
  br label %69

69:                                               ; preds = %52, %48
  call void @llvm.lifetime.end.p0(i64 4, ptr %9) #9
  ret void
}