; Function Attrs: nounwind uwtable
define internal void @PredictorAdd9_SSE2(ptr noundef %0, ptr noundef %1, i32 noundef %2, ptr noalias noundef %3) #2 {
  %.not30 = icmp slt i32 %2, 4
  br i1 %.not30, label %._crit_edge, label %.lr.ph.preheader

.lr.ph.preheader:                                 ; preds = %4
  %5 = zext nneg i32 %2 to i64
  br label %.lr.ph

.lr.ph:                                           ; preds = %.lr.ph.preheader, %.lr.ph
  %indvars.iv32 = phi i64 [ 0, %.lr.ph.preheader ], [ %indvars.iv.next33, %.lr.ph ]
  %indvars.iv = phi i64 [ 4, %.lr.ph.preheader ], [ %indvars.iv.next, %.lr.ph ]
  %6 = or disjoint i64 %indvars.iv32, 1
  %7 = getelementptr inbounds nuw i32, ptr %1, i64 %6
  %8 = load <2 x i64>, ptr %7, align 1, !tbaa !9
  %9 = getelementptr inbounds nuw i32, ptr %1, i64 %indvars.iv32
  %10 = load <2 x i64>, ptr %9, align 1, !tbaa !9
  %11 = getelementptr inbounds nuw i32, ptr %0, i64 %indvars.iv32
  %12 = load <16 x i8>, ptr %11, align 1, !tbaa !9
  %13 = bitcast <2 x i64> %10 to <16 x i8>
  %14 = bitcast <2 x i64> %8 to <16 x i8>
  %15 = tail call <16 x i8> @llvm.x86.sse2.pavg.b(<16 x i8> %13, <16 x i8> %14)
  %16 = xor <2 x i64> %10, %8
  %17 = bitcast <2 x i64> %16 to <16 x i8>
  %18 = and <16 x i8> %17, splat (i8 1)
  %19 = add <16 x i8> %15, %12
  %20 = sub <16 x i8> %19, %18
  %21 = getelementptr inbounds nuw i32, ptr %3, i64 %indvars.iv32
  store <16 x i8> %20, ptr %21, align 1, !tbaa !9
  %indvars.iv.next = add nuw nsw i64 %indvars.iv, 4
  %.not = icmp samesign ugt i64 %indvars.iv.next, %5
  %indvars.iv.next33 = add nuw nsw i64 %indvars.iv32, 4
  br i1 %.not, label %._crit_edge.loopexit, label %.lr.ph, !llvm.loop !20

._crit_edge.loopexit:                             ; preds = %.lr.ph
  %22 = trunc nuw nsw i64 %indvars.iv to i32
  br label %._crit_edge

._crit_edge:                                      ; preds = %._crit_edge.loopexit, %4
  %.0.lcssa = phi i32 [ 0, %4 ], [ %22, %._crit_edge.loopexit ]
  %.not24 = icmp eq i32 %.0.lcssa, %2
  br i1 %.not24, label %30, label %23

23:                                               ; preds = %._crit_edge
  %24 = load ptr, ptr getelementptr inbounds nuw (i8, ptr @VP8LPredictorsAdd_C, i64 72), align 8, !tbaa !3
  %25 = zext nneg i32 %.0.lcssa to i64
  %26 = getelementptr inbounds nuw i32, ptr %0, i64 %25
  %27 = getelementptr inbounds nuw i32, ptr %1, i64 %25
  %28 = sub nsw i32 %2, %.0.lcssa
  %29 = getelementptr inbounds nuw i32, ptr %3, i64 %25
  tail call void %24(ptr noundef %26, ptr noundef %27, i32 noundef %28, ptr noundef %29) #7
  br label %30

30:                                               ; preds = %23, %._crit_edge
  ret void
}